; Function Attrs: mustprogress uwtable
define dso_local noundef ptr @_ZN4absl13cord_internal12CordRepBtree11PrependSlowEPS1_PNS0_7CordRepE(ptr noundef %0, ptr noundef %1) local_unnamed_addr #3 align 2 {
  %3 = alloca ptr, align 8
  %4 = alloca %class.anon.5, align 8
  store ptr %0, ptr %3, align 8, !tbaa !14
  %5 = getelementptr inbounds nuw i8, ptr %1, i64 12
  %6 = load i8, ptr %5, align 4, !tbaa !25
  %7 = icmp eq i8 %6, 3
  br i1 %7, label %8, label %17, !prof !36

8:                                                ; preds = %2
  %9 = getelementptr inbounds nuw i8, ptr %1, i64 13
  %10 = load i8, ptr %9, align 1, !tbaa !4
  %11 = getelementptr inbounds nuw i8, ptr %0, i64 13
  %12 = load i8, ptr %11, align 1, !tbaa !4
  %.not.i = icmp ult i8 %10, %12
  br i1 %.not.i, label %15, label %13

13:                                               ; preds = %8
  %14 = tail call noundef ptr @_ZN4absl13cord_internal12CordRepBtree5MergeILNS1_8EdgeTypeE1EEEPS1_S4_S4_(ptr noundef nonnull %1, ptr noundef nonnull %0)
  br label %_ZN4absl13cord_internal12CordRepBtree10MergeTreesEPS1_S2_.exit

15:                                               ; preds = %8
  %16 = tail call noundef ptr @_ZN4absl13cord_internal12CordRepBtree5MergeILNS1_8EdgeTypeE0EEEPS1_S4_S4_(ptr noundef nonnull %0, ptr noundef nonnull %1)
  br label %_ZN4absl13cord_internal12CordRepBtree10MergeTreesEPS1_S2_.exit

17:                                               ; preds = %2
  call void @llvm.lifetime.start.p0(i64 8, ptr nonnull %4) #20
  store ptr %3, ptr %4, align 8, !tbaa !99
  call void @_ZN4absl13cord_internal14ReverseConsumeEPNS0_7CordRepENS_11FunctionRefIFvS2_mmEEE(ptr noundef nonnull %1, ptr nonnull %4, ptr nonnull @"_ZN4absl19functional_internal12InvokeObjectIZNS_13cord_internal12CordRepBtree11PrependSlowEPS3_PNS2_7CordRepEE3$_0vJS6_mmEEET0_NS0_7VoidPtrEDpNS0_8ForwardTIT1_E4typeE")
  %18 = load ptr, ptr %3, align 8, !tbaa !14
  call void @llvm.lifetime.end.p0(i64 8, ptr nonnull %4) #20
  br label %_ZN4absl13cord_internal12CordRepBtree10MergeTreesEPS1_S2_.exit

_ZN4absl13cord_internal12CordRepBtree10MergeTreesEPS1_S2_.exit: ; preds = %15, %13, %17
  %.0 = phi ptr [ %18, %17 ], [ %14, %13 ], [ %16, %15 ]
  ret ptr %.0
}